target datalayout = "e-m:e-p270:32:32-p271:32:32-p272:64:64-i64:64-i128:128-f80:128-n8:16:32:64-S128"
target triple = "x86_64-pc-linux-gnu"

@stderr = external global ptr, align 8
@.str.99 = private unnamed_addr constant [42 x i8] c" rmse=%.4g nrmse=%.4g maxe=%.4g psnr=%.2f\00", align 1

; Function Attrs: nounwind uwtable
define internal void @print_error(ptr noundef %0, ptr noundef %1, i32 noundef %2, i64 noundef %3) #0 {
  %5 = alloca ptr, align 8
  %6 = alloca ptr, align 8
  %7 = alloca i32, align 4
  %8 = alloca i64, align 8
  %9 = alloca ptr, align 8
  %10 = alloca ptr, align 8
  %11 = alloca ptr, align 8
  %12 = alloca ptr, align 8
  %13 = alloca ptr, align 8
  %14 = alloca ptr, align 8
  %15 = alloca ptr, align 8
  %16 = alloca ptr, align 8
  %17 = alloca double, align 8
  %18 = alloca double, align 8
  %19 = alloca double, align 8
  %20 = alloca double, align 8
  %21 = alloca double, align 8
  %22 = alloca double, align 8
  %23 = alloca i64, align 8
  %24 = alloca double, align 8
  %25 = alloca double, align 8
  %26 = alloca i32, align 4
  store ptr %0, ptr %5, align 8, !tbaa !19
  store ptr %1, ptr %6, align 8, !tbaa !19
  store i32 %2, ptr %7, align 4, !tbaa !4
  store i64 %3, ptr %8, align 8, !tbaa !12
  call void @llvm.lifetime.start.p0(i64 8, ptr %9) #10
  %27 = load ptr, ptr %5, align 8, !tbaa !19
  store ptr %27, ptr %9, align 8, !tbaa !30
  call void @llvm.lifetime.start.p0(i64 8, ptr %10) #10
  %28 = load ptr, ptr %5, align 8, !tbaa !19
  store ptr %28, ptr %10, align 8, !tbaa !32
  call void @llvm.lifetime.start.p0(i64 8, ptr %11) #10
  %29 = load ptr, ptr %5, align 8, !tbaa !19
  store ptr %29, ptr %11, align 8, !tbaa !34
  call void @llvm.lifetime.start.p0(i64 8, ptr %12) #10
  %30 = load ptr, ptr %5, align 8, !tbaa !19
  store ptr %30, ptr %12, align 8, !tbaa !36
  call void @llvm.lifetime.start.p0(i64 8, ptr %13) #10
  %31 = load ptr, ptr %6, align 8, !tbaa !19
  store ptr %31, ptr %13, align 8, !tbaa !30
  call void @llvm.lifetime.start.p0(i64 8, ptr %14) #10
  %32 = load ptr, ptr %6, align 8, !tbaa !19
  store ptr %32, ptr %14, align 8, !tbaa !32
  call void @llvm.lifetime.start.p0(i64 8, ptr %15) #10
  %33 = load ptr, ptr %6, align 8, !tbaa !19
  store ptr %33, ptr %15, align 8, !tbaa !34
  call void @llvm.lifetime.start.p0(i64 8, ptr %16) #10
  %34 = load ptr, ptr %6, align 8, !tbaa !19
  store ptr %34, ptr %16, align 8, !tbaa !36
  call void @llvm.lifetime.start.p0(i64 8, ptr %17) #10
  store double 0x7FEFFFFFFFFFFFFF, ptr %17, align 8, !tbaa !14
  call void @llvm.lifetime.start.p0(i64 8, ptr %18) #10
  store double 0xFFEFFFFFFFFFFFFF, ptr %18, align 8, !tbaa !14
  call void @llvm.lifetime.start.p0(i64 8, ptr %19) #10
  store double 0.000000e+00, ptr %19, align 8, !tbaa !14
  call void @llvm.lifetime.start.p0(i64 8, ptr %20) #10
  store double 0.000000e+00, ptr %20, align 8, !tbaa !14
  call void @llvm.lifetime.start.p0(i64 8, ptr %21) #10
  store double 0.000000e+00, ptr %21, align 8, !tbaa !14
  call void @llvm.lifetime.start.p0(i64 8, ptr %22) #10
  store double 0.000000e+00, ptr %22, align 8, !tbaa !14
  call void @llvm.lifetime.start.p0(i64 8, ptr %23) #10
  store i64 0, ptr %23, align 8, !tbaa !12
  br label %35

35:                                               ; preds = %143, %4
  %36 = load i64, ptr %23, align 8, !tbaa !12
  %37 = load i64, ptr %8, align 8, !tbaa !12
  %38 = icmp ult i64 %36, %37
  br i1 %38, label %39, label %146

39:                                               ; preds = %35
  call void @llvm.lifetime.start.p0(i64 8, ptr %24) #10
  call void @llvm.lifetime.start.p0(i64 8, ptr %25) #10
  %40 = load i32, ptr %7, align 4, !tbaa !4
  switch i32 %40, label %107 [
    i32 1, label %41
    i32 2, label %58
    i32 3, label %75
    i32 4, label %92
  ]

41:                                               ; preds = %39
  %42 = load ptr, ptr %9, align 8, !tbaa !30
  %43 = load i64, ptr %23, align 8, !tbaa !12
  %44 = getelementptr inbounds nuw i32, ptr %42, i64 %43
  %45 = load i32, ptr %44, align 4, !tbaa !4
  %46 = load ptr, ptr %13, align 8, !tbaa !30
  %47 = load i64, ptr %23, align 8, !tbaa !12
  %48 = getelementptr inbounds nuw i32, ptr %46, i64 %47
  %49 = load i32, ptr %48, align 4, !tbaa !4
  %50 = sub nsw i32 %45, %49
  %51 = sitofp i32 %50 to double
  %52 = call double @llvm.fabs.f64(double %51)
  store double %52, ptr %24, align 8, !tbaa !14
  %53 = load ptr, ptr %9, align 8, !tbaa !30
  %54 = load i64, ptr %23, align 8, !tbaa !12
  %55 = getelementptr inbounds nuw i32, ptr %53, i64 %54
  %56 = load i32, ptr %55, align 4, !tbaa !4
  %57 = sitofp i32 %56 to double
  store double %57, ptr %25, align 8, !tbaa !14
  br label %108

58:                                               ; preds = %39
  %59 = load ptr, ptr %10, align 8, !tbaa !32
  %60 = load i64, ptr %23, align 8, !tbaa !12
  %61 = getelementptr inbounds nuw i64, ptr %59, i64 %60
  %62 = load i64, ptr %61, align 8, !tbaa !12
  %63 = load ptr, ptr %14, align 8, !tbaa !32
  %64 = load i64, ptr %23, align 8, !tbaa !12
  %65 = getelementptr inbounds nuw i64, ptr %63, i64 %64
  %66 = load i64, ptr %65, align 8, !tbaa !12
  %67 = sub nsw i64 %62, %66
  %68 = sitofp i64 %67 to double
  %69 = call double @llvm.fabs.f64(double %68)
  store double %69, ptr %24, align 8, !tbaa !14
  %70 = load ptr, ptr %10, align 8, !tbaa !32
  %71 = load i64, ptr %23, align 8, !tbaa !12
  %72 = getelementptr inbounds nuw i64, ptr %70, i64 %71
  %73 = load i64, ptr %72, align 8, !tbaa !12
  %74 = sitofp i64 %73 to double
  store double %74, ptr %25, align 8, !tbaa !14
  br label %108

75:                                               ; preds = %39
  %76 = load ptr, ptr %11, align 8, !tbaa !34
  %77 = load i64, ptr %23, align 8, !tbaa !12
  %78 = getelementptr inbounds nuw float, ptr %76, i64 %77
  %79 = load float, ptr %78, align 4, !tbaa !38
  %80 = load ptr, ptr %15, align 8, !tbaa !34
  %81 = load i64, ptr %23, align 8, !tbaa !12
  %82 = getelementptr inbounds nuw float, ptr %80, i64 %81
  %83 = load float, ptr %82, align 4, !tbaa !38
  %84 = fsub float %79, %83
  %85 = fpext float %84 to double
  %86 = call double @llvm.fabs.f64(double %85)
  store double %86, ptr %24, align 8, !tbaa !14
  %87 = load ptr, ptr %11, align 8, !tbaa !34
  %88 = load i64, ptr %23, align 8, !tbaa !12
  %89 = getelementptr inbounds nuw float, ptr %87, i64 %88
  %90 = load float, ptr %89, align 4, !tbaa !38
  %91 = fpext float %90 to double
  store double %91, ptr %25, align 8, !tbaa !14
  br label %108

92:                                               ; preds = %39
  %93 = load ptr, ptr %12, align 8, !tbaa !36
  %94 = load i64, ptr %23, align 8, !tbaa !12
  %95 = getelementptr inbounds nuw double, ptr %93, i64 %94
  %96 = load double, ptr %95, align 8, !tbaa !14
  %97 = load ptr, ptr %16, align 8, !tbaa !36
  %98 = load i64, ptr %23, align 8, !tbaa !12
  %99 = getelementptr inbounds nuw double, ptr %97, i64 %98
  %100 = load double, ptr %99, align 8, !tbaa !14
  %101 = fsub double %96, %100
  %102 = call double @llvm.fabs.f64(double %101)
  store double %102, ptr %24, align 8, !tbaa !14
  %103 = load ptr, ptr %12, align 8, !tbaa !36
  %104 = load i64, ptr %23, align 8, !tbaa !12
  %105 = getelementptr inbounds nuw double, ptr %103, i64 %104
  %106 = load double, ptr %105, align 8, !tbaa !14
  store double %106, ptr %25, align 8, !tbaa !14
  br label %108

107:                                              ; preds = %39
  store i32 1, ptr %26, align 4
  br label %140

108:                                              ; preds = %92, %75, %58, %41
  %109 = load double, ptr %21, align 8, !tbaa !14
  %110 = load double, ptr %24, align 8, !tbaa !14
  %111 = fcmp ogt double %109, %110
  br i1 %111, label %112, label %114

112:                                              ; preds = %108
  %113 = load double, ptr %21, align 8, !tbaa !14
  br label %116

114:                                              ; preds = %108
  %115 = load double, ptr %24, align 8, !tbaa !14
  br label %116

116:                                              ; preds = %114, %112
  %117 = phi double [ %113, %112 ], [ %115, %114 ]
  store double %117, ptr %21, align 8, !tbaa !14
  %118 = load double, ptr %24, align 8, !tbaa !14
  %119 = load double, ptr %24, align 8, !tbaa !14
  %120 = load double, ptr %19, align 8, !tbaa !14
  %121 = call double @llvm.fmuladd.f64(double %118, double %119, double %120)
  store double %121, ptr %19, align 8, !tbaa !14
  %122 = load double, ptr %17, align 8, !tbaa !14
  %123 = load double, ptr %25, align 8, !tbaa !14
  %124 = fcmp olt double %122, %123
  br i1 %124, label %125, label %127

125:                                              ; preds = %116
  %126 = load double, ptr %17, align 8, !tbaa !14
  br label %129

127:                                              ; preds = %116
  %128 = load double, ptr %25, align 8, !tbaa !14
  br label %129

129:                                              ; preds = %127, %125
  %130 = phi double [ %126, %125 ], [ %128, %127 ]
  store double %130, ptr %17, align 8, !tbaa !14
  %131 = load double, ptr %18, align 8, !tbaa !14
  %132 = load double, ptr %25, align 8, !tbaa !14
  %133 = fcmp ogt double %131, %132
  br i1 %133, label %134, label %136

134:                                              ; preds = %129
  %135 = load double, ptr %18, align 8, !tbaa !14
  br label %138

136:                                              ; preds = %129
  %137 = load double, ptr %25, align 8, !tbaa !14
  br label %138

138:                                              ; preds = %136, %134
  %139 = phi double [ %135, %134 ], [ %137, %136 ]
  store double %139, ptr %18, align 8, !tbaa !14
  store i32 0, ptr %26, align 4
  br label %140

140:                                              ; preds = %138, %107
  call void @llvm.lifetime.end.p0(i64 8, ptr %25) #10
  call void @llvm.lifetime.end.p0(i64 8, ptr %24) #10
  %141 = load i32, ptr %26, align 4
  switch i32 %141, label %171 [
    i32 0, label %142
  ]

142:                                              ; preds = %140
  br label %143

143:                                              ; preds = %142
  %144 = load i64, ptr %23, align 8, !tbaa !12
  %145 = add i64 %144, 1
  store i64 %145, ptr %23, align 8, !tbaa !12
  br label %35

146:                                              ; preds = %35
  %147 = load double, ptr %19, align 8, !tbaa !14
  %148 = load i64, ptr %8, align 8, !tbaa !12
  %149 = uitofp i64 %148 to double
  %150 = fdiv double %147, %149
  %151 = call double @sqrt(double noundef %150) #10, !tbaa !4
  store double %151, ptr %19, align 8, !tbaa !14
  %152 = load double, ptr %19, align 8, !tbaa !14
  %153 = load double, ptr %18, align 8, !tbaa !14
  %154 = load double, ptr %17, align 8, !tbaa !14
  %155 = fsub double %153, %154
  %156 = fdiv double %152, %155
  store double %156, ptr %20, align 8, !tbaa !14
  %157 = load double, ptr %18, align 8, !tbaa !14
  %158 = load double, ptr %17, align 8, !tbaa !14
  %159 = fsub double %157, %158
  %160 = load double, ptr %19, align 8, !tbaa !14
  %161 = fmul double 2.000000e+00, %160
  %162 = fdiv double %159, %161
  %163 = call double @log10(double noundef %162) #10, !tbaa !4
  %164 = fmul double 2.000000e+01, %163
  store double %164, ptr %22, align 8, !tbaa !14
  %165 = load ptr, ptr @stderr, align 8, !tbaa !22
  %166 = load double, ptr %19, align 8, !tbaa !14
  %167 = load double, ptr %20, align 8, !tbaa !14
  %168 = load double, ptr %21, align 8, !tbaa !14
  %169 = load double, ptr %22, align 8, !tbaa !14
  %170 = call i32 (ptr, ptr, ...) @fprintf(ptr noundef %165, ptr noundef @.str.99, double noundef %166, double noundef %167, double noundef %168, double noundef %169) #10
  store i32 0, ptr %26, align 4
  br label %171

171:                                              ; preds = %146, %140
  call void @llvm.lifetime.end.p0(i64 8, ptr %23) #10
  call void @llvm.lifetime.end.p0(i64 8, ptr %22) #10
  call void @llvm.lifetime.end.p0(i64 8, ptr %21) #10
  call void @llvm.lifetime.end.p0(i64 8, ptr %20) #10
  call void @llvm.lifetime.end.p0(i64 8, ptr %19) #10
  call void @llvm.lifetime.end.p0(i64 8, ptr %18) #10
  call void @llvm.lifetime.end.p0(i64 8, ptr %17) #10
  call void @llvm.lifetime.end.p0(i64 8, ptr %16) #10
  call void @llvm.lifetime.end.p0(i64 8, ptr %15) #10
  call void @llvm.lifetime.end.p0(i64 8, ptr %14) #10
  call void @llvm.lifetime.end.p0(i64 8, ptr %13) #10
  call void @llvm.lifetime.end.p0(i64 8, ptr %12) #10
  call void @llvm.lifetime.end.p0(i64 8, ptr %11) #10
  call void @llvm.lifetime.end.p0(i64 8, ptr %10) #10
  call void @llvm.lifetime.end.p0(i64 8, ptr %9) #10
  %172 = load i32, ptr %26, align 4
  switch i32 %172, label %174 [
    i32 0, label %173
    i32 1, label %173
  ]

173:                                              ; preds = %171, %171
  ret void

174:                                              ; preds = %171
  unreachable
}